target datalayout = "e-m:e-p270:32:32-p271:32:32-p272:64:64-i64:64-i128:128-f80:128-n8:16:32:64-S128"
target triple = "x86_64-pc-linux-gnu"

%struct.Nwk_Grf_t_ = type { i32, i32, i32, ptr, ptr, i32, i32, ptr, ptr, [17 x i32], [17 x i32], ptr, ptr, ptr, i32, i32 }

@.str = private unnamed_addr constant [67 x i8] c"Memory usage stats:  Preprocessing = %.2f MB.  Solving = %.2f MB.\0A\00", align 1

; Function Attrs: nounwind uwtable
define void @Nwk_ManGraphReportMemoryUsage(ptr noundef %0) #0 {
  %2 = alloca ptr, align 8
  store ptr %0, ptr %2, align 8, !tbaa !7
  %3 = load ptr, ptr %2, align 8, !tbaa !7
  %4 = getelementptr inbounds nuw %struct.Nwk_Grf_t_, ptr %3, i32 0, i32 2
  %5 = load i32, ptr %4, align 8, !tbaa !18
  %6 = sext i32 %5 to i64
  %7 = mul i64 8, %6
  %8 = add i64 224, %7
  %9 = load ptr, ptr %2, align 8, !tbaa !7
  %10 = getelementptr inbounds nuw %struct.Nwk_Grf_t_, ptr %9, i32 0, i32 0
  %11 = load i32, ptr %10, align 8, !tbaa !34
  %12 = load ptr, ptr %2, align 8, !tbaa !7
  %13 = getelementptr inbounds nuw %struct.Nwk_Grf_t_, ptr %12, i32 0, i32 1
  %14 = load i32, ptr %13, align 4, !tbaa !10
  %15 = add nsw i32 %11, %14
  %16 = sext i32 %15 to i64
  %17 = mul i64 4, %16
  %18 = add i64 %8, %17
  %19 = load ptr, ptr %2, align 8, !tbaa !7
  %20 = getelementptr inbounds nuw %struct.Nwk_Grf_t_, ptr %19, i32 0, i32 5
  %21 = load i32, ptr %20, align 8, !tbaa !35
  %22 = sext i32 %21 to i64
  %23 = mul i64 16, %22
  %24 = add i64 %18, %23
  %25 = trunc i64 %24 to i32
  %26 = load ptr, ptr %2, align 8, !tbaa !7
  %27 = getelementptr inbounds nuw %struct.Nwk_Grf_t_, ptr %26, i32 0, i32 14
  store i32 %25, ptr %27, align 8, !tbaa !36
  %28 = load ptr, ptr %2, align 8, !tbaa !7
  %29 = getelementptr inbounds nuw %struct.Nwk_Grf_t_, ptr %28, i32 0, i32 6
  %30 = load i32, ptr %29, align 4, !tbaa !37
  %31 = sext i32 %30 to i64
  %32 = mul i64 16, %31
  %33 = load ptr, ptr %2, align 8, !tbaa !7
  %34 = getelementptr inbounds nuw %struct.Nwk_Grf_t_, ptr %33, i32 0, i32 5
  %35 = load i32, ptr %34, align 8, !tbaa !35
  %36 = sext i32 %35 to i64
  %37 = mul i64 8, %36
  %38 = add i64 %32, %37
  %39 = trunc i64 %38 to i32
  %40 = load ptr, ptr %2, align 8, !tbaa !7
  %41 = getelementptr inbounds nuw %struct.Nwk_Grf_t_, ptr %40, i32 0, i32 15
  store i32 %39, ptr %41, align 4, !tbaa !38
  %42 = load ptr, ptr %2, align 8, !tbaa !7
  %43 = getelementptr inbounds nuw %struct.Nwk_Grf_t_, ptr %42, i32 0, i32 14
  %44 = load i32, ptr %43, align 8, !tbaa !36
  %45 = sitofp i32 %44 to double
  %46 = fmul double 1.000000e+00, %45
  %47 = fdiv double %46, 0x4130000000000000
  %48 = load ptr, ptr %2, align 8, !tbaa !7
  %49 = getelementptr inbounds nuw %struct.Nwk_Grf_t_, ptr %48, i32 0, i32 15
  %50 = load i32, ptr %49, align 4, !tbaa !38
  %51 = sitofp i32 %50 to double
  %52 = fmul double 1.000000e+00, %51
  %53 = fdiv double %52, 0x4130000000000000
  %54 = call i32 (ptr, ...) @printf(ptr noundef @.str, double noundef %47, double noundef %53)
  ret void
}