; Function Attrs: nofree nounwind uwtable
define void @Nwk_ManGraphReportMemoryUsage(ptr noundef captures(none) initializes((216, 224)) %0) local_unnamed_addr #7 {
  %2 = getelementptr inbounds nuw i8, ptr %0, i64 8
  %3 = load i32, ptr %2, align 8, !tbaa !18
  %4 = shl i32 %3, 3
  %5 = add i32 %4, 224
  %6 = load i32, ptr %0, align 8, !tbaa !30
  %7 = getelementptr inbounds nuw i8, ptr %0, i64 4
  %8 = load i32, ptr %7, align 4, !tbaa !3
  %9 = add nsw i32 %8, %6
  %10 = shl i32 %9, 2
  %11 = add i32 %5, %10
  %12 = getelementptr inbounds nuw i8, ptr %0, i64 32
  %13 = load i32, ptr %12, align 8, !tbaa !31
  %14 = shl i32 %13, 4
  %15 = add i32 %11, %14
  %16 = getelementptr inbounds nuw i8, ptr %0, i64 216
  store i32 %15, ptr %16, align 8, !tbaa !32
  %17 = getelementptr inbounds nuw i8, ptr %0, i64 36
  %18 = load i32, ptr %17, align 4, !tbaa !33
  %19 = shl i32 %18, 4
  %20 = shl i32 %13, 3
  %21 = add i32 %19, %20
  %22 = getelementptr inbounds nuw i8, ptr %0, i64 220
  store i32 %21, ptr %22, align 4, !tbaa !34
  %23 = sitofp i32 %15 to double
  %24 = fmul double %23, 0x3EB0000000000000
  %25 = sitofp i32 %21 to double
  %26 = fmul double %25, 0x3EB0000000000000
  %27 = tail call i32 (ptr, ...) @printf(ptr noundef nonnull dereferenceable(1) @.str, double noundef %24, double noundef %26)
  ret void
}